; Function Attrs: mustprogress uwtable
define noundef ptr @_ZN6icu_7516DateIntervalInfo8initHashER10UErrorCode(ptr nocapture nonnull readnone align 8 %this, ptr noundef nonnull align 4 dereferenceable(4) %status) local_unnamed_addr #1 align 2 personality ptr @__gxx_personality_v0 {
entry:
  %0 = load i32, ptr %status, align 4
  %cmp.i = icmp slt i32 %0, 1
  br i1 %cmp.i, label %if.end, label %return

if.end:                                           ; preds = %entry
  %call2 = tail call noundef ptr @_ZN6icu_757UMemorynwEm(i64 noundef 88) #15
  %new.isnull = icmp eq ptr %call2, null
  br i1 %new.isnull, label %if.then3, label %new.notnull

new.notnull:                                      ; preds = %if.end
  store ptr null, ptr %call2, align 8
  %1 = load i32, ptr %status, align 4
  %cmp.i.i.i = icmp slt i32 %1, 1
  br i1 %cmp.i.i.i, label %if.end.i.i, label %_ZN6icu_759HashtableD2Ev.exit

if.end.i.i:                                       ; preds = %new.notnull
  %hashObj.i.i = getelementptr inbounds i8, ptr %call2, i64 8
  %call2.i.i6 = invoke ptr @uhash_init_75(ptr noundef nonnull %hashObj.i.i, ptr noundef nonnull @uhash_hashUnicodeString_75, ptr noundef nonnull @uhash_compareUnicodeString_75, ptr noundef null, ptr noundef nonnull %status)
          to label %call2.i.i.noexc unwind label %lpad

call2.i.i.noexc:                                  ; preds = %if.end.i.i
  %2 = load i32, ptr %status, align 4
  %cmp.i3.i.i = icmp sgt i32 %2, 0
  br i1 %cmp.i3.i.i, label %delete.notnull, label %if.then5.i.i

if.then5.i.i:                                     ; preds = %call2.i.i.noexc
  store ptr %hashObj.i.i, ptr %call2, align 8
  %call8.i.i7 = invoke ptr @uhash_setKeyDeleter_75(ptr noundef nonnull %hashObj.i.i, ptr noundef nonnull @uprv_deleteUObject_75)
          to label %if.end4 unwind label %lpad

if.then3:                                         ; preds = %if.end
  store i32 7, ptr %status, align 4
  br label %return

lpad:                                             ; preds = %if.then5.i.i, %if.end.i.i
  %3 = landingpad { ptr, i32 }
          cleanup
  tail call void @_ZN6icu_757UMemorydlEPv(ptr noundef nonnull %call2) #15
  resume { ptr, i32 } %3

if.end4:                                          ; preds = %if.then5.i.i
  %.pre = load i32, ptr %status, align 4
  %4 = icmp slt i32 %.pre, 1
  br i1 %4, label %if.end8, label %delete.notnull

delete.notnull:                                   ; preds = %call2.i.i.noexc, %if.end4
  %.pr = load ptr, ptr %call2, align 8
  %cmp.not.i = icmp eq ptr %.pr, null
  br i1 %cmp.not.i, label %_ZN6icu_759HashtableD2Ev.exit, label %if.then.i

if.then.i:                                        ; preds = %delete.notnull
  invoke void @uhash_close_75(ptr noundef nonnull %.pr)
          to label %_ZN6icu_759HashtableD2Ev.exit unwind label %terminate.lpad.i

terminate.lpad.i:                                 ; preds = %if.then.i
  %5 = landingpad { ptr, i32 }
          catch ptr null
  %6 = extractvalue { ptr, i32 } %5, 0
  tail call void @__clang_call_terminate(ptr %6) #17
  unreachable

_ZN6icu_759HashtableD2Ev.exit:                    ; preds = %new.notnull, %delete.notnull, %if.then.i
  tail call void @_ZN6icu_757UMemorydlEPv(ptr noundef nonnull %call2) #15
  br label %return

if.end8:                                          ; preds = %if.end4
  %7 = load ptr, ptr %call2, align 8
  %call.i = tail call noundef ptr @uhash_setValueComparator_75(ptr noundef %7, ptr noundef nonnull @_ZN6icu_75L32dtitvinfHashTableValueComparatorE8UElementS0_)
  br label %return

return:                                           ; preds = %entry, %if.end8, %_ZN6icu_759HashtableD2Ev.exit, %if.then3
  %retval.0 = phi ptr [ null, %if.then3 ], [ null, %_ZN6icu_759HashtableD2Ev.exit ], [ %call2, %if.end8 ], [ null, %entry ]
  ret ptr %retval.0
}